; ModuleID = 'source-C-CXX/10/1103.cpp'
source_filename = "source-C-CXX/10/1103.cpp"
target datalayout = "e-m:e-p270:32:32-p271:32:32-p272:64:64-i64:64-f80:128-n8:16:32:64-S128"
target triple = "x86_64-pc-linux-gnu"

%"class.std::ios_base::Init" = type { i8 }
%"class.std::basic_istream" = type { i32 (...)**, i64, %"class.std::basic_ios" }
%"class.std::basic_ios" = type { %"class.std::ios_base", %"class.std::basic_ostream"*, i8, i8, %"class.std::basic_streambuf"*, %"class.std::ctype"*, %"class.std::num_put"*, %"class.std::num_get"* }
%"class.std::ios_base" = type { i32 (...)**, i64, i64, i32, i32, i32, %"struct.std::ios_base::_Callback_list"*, %"struct.std::ios_base::_Words", [8 x %"struct.std::ios_base::_Words"], i32, %"struct.std::ios_base::_Words"*, %"class.std::locale" }
%"struct.std::ios_base::_Callback_list" = type { %"struct.std::ios_base::_Callback_list"*, void (i32, %"class.std::ios_base"*, i32)*, i32, i32 }
%"struct.std::ios_base::_Words" = type { i8*, i64 }
%"class.std::locale" = type { %"class.std::locale::_Impl"* }
%"class.std::locale::_Impl" = type { i32, %"class.std::locale::facet"**, i64, %"class.std::locale::facet"**, i8** }
%"class.std::locale::facet" = type <{ i32 (...)**, i32, [4 x i8] }>
%"class.std::basic_ostream" = type { i32 (...)**, %"class.std::basic_ios" }
%"class.std::basic_streambuf" = type { i32 (...)**, i8*, i8*, i8*, i8*, i8*, i8*, %"class.std::locale" }
%"class.std::ctype" = type <{ %"class.std::locale::facet.base", [4 x i8], %struct.__locale_struct*, i8, [7 x i8], i32*, i32*, i16*, i8, [256 x i8], [256 x i8], i8, [6 x i8] }>
%"class.std::locale::facet.base" = type <{ i32 (...)**, i32 }>
%struct.__locale_struct = type { [13 x %struct.__locale_data*], i16*, i32*, i32*, [13 x i8*] }
%struct.__locale_data = type opaque
%"class.std::num_put" = type { %"class.std::locale::facet.base", [4 x i8] }
%"class.std::num_get" = type { %"class.std::locale::facet.base", [4 x i8] }

@_ZStL8__ioinit = internal global %"class.std::ios_base::Init" zeroinitializer, align 1
@__dso_handle = external hidden global i8
@_ZSt3cin = external global %"class.std::basic_istream", align 8
@__const.main.p = private unnamed_addr constant [13 x i32] [i32 0, i32 31, i32 28, i32 31, i32 30, i32 31, i32 30, i32 31, i32 31, i32 30, i32 31, i32 30, i32 31], align 16
@_ZSt4cout = external global %"class.std::basic_ostream", align 8
@llvm.global_ctors = appending global [1 x { i32, void ()*, i8* }] [{ i32, void ()*, i8* } { i32 65535, void ()* @_GLOBAL__sub_I_1103.cpp, i8* null }]

declare void @_ZNSt8ios_base4InitC1Ev(%"class.std::ios_base::Init"* nonnull align 1 dereferenceable(1)) unnamed_addr #0

; Function Attrs: nounwind
declare void @_ZNSt8ios_base4InitD1Ev(%"class.std::ios_base::Init"* nonnull align 1 dereferenceable(1)) unnamed_addr #1

; Function Attrs: nofree nounwind
declare i32 @__cxa_atexit(void (i8*)*, i8*, i8*) local_unnamed_addr #2

; Function Attrs: mustprogress nofree norecurse nosync nounwind readnone sspstrong uwtable willreturn
define dso_local i32 @_Z3runi(i32 %0) local_unnamed_addr #3 {
  %2 = and i32 %0, 3
  %3 = icmp eq i32 %2, 0
  %4 = srem i32 %0, 100
  %5 = icmp ne i32 %4, 0
  %6 = and i1 %3, %5
  %7 = srem i32 %0, 400
  %8 = icmp eq i32 %7, 0
  %9 = select i1 %6, i1 true, i1 %8
  %10 = zext i1 %9 to i32
  ret i32 %10
}

; Function Attrs: mustprogress norecurse sspstrong uwtable
define dso_local i32 @main() local_unnamed_addr #4 {
  %1 = alloca i32, align 4
  %2 = alloca i32, align 4
  %3 = alloca i32, align 4
  %4 = bitcast i32* %1 to i8*
  call void @llvm.lifetime.start.p0i8(i64 4, i8* nonnull %4) #8
  %5 = bitcast i32* %2 to i8*
  call void @llvm.lifetime.start.p0i8(i64 4, i8* nonnull %5) #8
  %6 = bitcast i32* %3 to i8*
  call void @llvm.lifetime.start.p0i8(i64 4, i8* nonnull %6) #8
  %7 = call nonnull align 8 dereferenceable(16) %"class.std::basic_istream"* @_ZNSirsERi(%"class.std::basic_istream"* nonnull align 8 dereferenceable(16) @_ZSt3cin, i32* nonnull align 4 dereferenceable(4) %1)
  %8 = call nonnull align 8 dereferenceable(16) %"class.std::basic_istream"* @_ZNSirsERi(%"class.std::basic_istream"* nonnull align 8 dereferenceable(16) %7, i32* nonnull align 4 dereferenceable(4) %2)
  %9 = call nonnull align 8 dereferenceable(16) %"class.std::basic_istream"* @_ZNSirsERi(%"class.std::basic_istream"* nonnull align 8 dereferenceable(16) %8, i32* nonnull align 4 dereferenceable(4) %3)
  %10 = load i32, i32* %1, align 4, !tbaa !5
  %11 = load i32, i32* %2, align 4, !tbaa !5
  %12 = icmp sgt i32 %11, 1
  br i1 %12, label %13, label %80

13:                                               ; preds = %0
  %14 = zext i32 %11 to i64
  %15 = add nsw i64 %14, -1
  %16 = icmp ult i64 %15, 8
  br i1 %16, label %77, label %17

17:                                               ; preds = %13
  %18 = and i64 %15, -8
  %19 = or i64 %18, 1
  %20 = add nsw i64 %18, -8
  %21 = lshr exact i64 %20, 3
  %22 = add nuw nsw i64 %21, 1
  %23 = and i64 %22, 1
  %24 = icmp eq i64 %20, 0
  br i1 %24, label %55, label %25

25:                                               ; preds = %17
  %26 = and i64 %22, 4611686018427387902
  br label %27

27:                                               ; preds = %27, %25
  %28 = phi i64 [ 0, %25 ], [ %50, %27 ]
  %29 = phi <4 x i32> [ zeroinitializer, %25 ], [ %48, %27 ]
  %30 = phi <4 x i32> [ zeroinitializer, %25 ], [ %49, %27 ]
  %31 = phi i64 [ %26, %25 ], [ %51, %27 ]
  %32 = or i64 %28, 1
  %33 = getelementptr inbounds [13 x i32], [13 x i32]* @__const.main.p, i64 0, i64 %32
  %34 = bitcast i32* %33 to <4 x i32>*
  %35 = load <4 x i32>, <4 x i32>* %34, align 4, !tbaa !5
  %36 = getelementptr inbounds i32, i32* %33, i64 4
  %37 = bitcast i32* %36 to <4 x i32>*
  %38 = load <4 x i32>, <4 x i32>* %37, align 4, !tbaa !5
  %39 = add <4 x i32> %35, %29
  %40 = add <4 x i32> %38, %30
  %41 = or i64 %28, 9
  %42 = getelementptr inbounds [13 x i32], [13 x i32]* @__const.main.p, i64 0, i64 %41
  %43 = bitcast i32* %42 to <4 x i32>*
  %44 = load <4 x i32>, <4 x i32>* %43, align 4, !tbaa !5
  %45 = getelementptr inbounds i32, i32* %42, i64 4
  %46 = bitcast i32* %45 to <4 x i32>*
  %47 = load <4 x i32>, <4 x i32>* %46, align 4, !tbaa !5
  %48 = add <4 x i32> %44, %39
  %49 = add <4 x i32> %47, %40
  %50 = add nuw i64 %28, 16
  %51 = add i64 %31, -2
  %52 = icmp eq i64 %51, 0
  br i1 %52, label %53, label %27, !llvm.loop !9

53:                                               ; preds = %27
  %54 = or i64 %50, 1
  br label %55

55:                                               ; preds = %53, %17
  %56 = phi <4 x i32> [ undef, %17 ], [ %48, %53 ]
  %57 = phi <4 x i32> [ undef, %17 ], [ %49, %53 ]
  %58 = phi i64 [ 1, %17 ], [ %54, %53 ]
  %59 = phi <4 x i32> [ zeroinitializer, %17 ], [ %48, %53 ]
  %60 = phi <4 x i32> [ zeroinitializer, %17 ], [ %49, %53 ]
  %61 = icmp eq i64 %23, 0
  br i1 %61, label %71, label %62

62:                                               ; preds = %55
  %63 = getelementptr inbounds [13 x i32], [13 x i32]* @__const.main.p, i64 0, i64 %58
  %64 = getelementptr inbounds i32, i32* %63, i64 4
  %65 = bitcast i32* %64 to <4 x i32>*
  %66 = load <4 x i32>, <4 x i32>* %65, align 4, !tbaa !5
  %67 = add <4 x i32> %66, %60
  %68 = bitcast i32* %63 to <4 x i32>*
  %69 = load <4 x i32>, <4 x i32>* %68, align 4, !tbaa !5
  %70 = add <4 x i32> %69, %59
  br label %71

71:                                               ; preds = %55, %62
  %72 = phi <4 x i32> [ %56, %55 ], [ %70, %62 ]
  %73 = phi <4 x i32> [ %57, %55 ], [ %67, %62 ]
  %74 = add <4 x i32> %73, %72
  %75 = call i32 @llvm.vector.reduce.add.v4i32(<4 x i32> %74)
  %76 = icmp eq i64 %15, %18
  br i1 %76, label %80, label %77

77:                                               ; preds = %13, %71
  %78 = phi i64 [ 1, %13 ], [ %19, %71 ]
  %79 = phi i32 [ 0, %13 ], [ %75, %71 ]
  br label %97

80:                                               ; preds = %97, %71, %0
  %81 = phi i32 [ 0, %0 ], [ %75, %71 ], [ %102, %97 ]
  %82 = and i32 %10, 3
  %83 = icmp eq i32 %82, 0
  %84 = srem i32 %10, 100
  %85 = icmp ne i32 %84, 0
  %86 = and i1 %83, %85
  %87 = srem i32 %10, 400
  %88 = icmp eq i32 %87, 0
  %89 = select i1 %86, i1 true, i1 %88
  %90 = load i32, i32* %3, align 4, !tbaa !5
  %91 = icmp sgt i32 %11, 2
  %92 = select i1 %89, i1 %91, i1 false
  %93 = zext i1 %92 to i32
  %94 = add i32 %81, %93
  %95 = add i32 %94, %90
  %96 = call nonnull align 8 dereferenceable(8) %"class.std::basic_ostream"* @_ZNSolsEi(%"class.std::basic_ostream"* nonnull align 8 dereferenceable(8) @_ZSt4cout, i32 %95)
  call void @llvm.lifetime.end.p0i8(i64 4, i8* nonnull %6) #8
  call void @llvm.lifetime.end.p0i8(i64 4, i8* nonnull %5) #8
  call void @llvm.lifetime.end.p0i8(i64 4, i8* nonnull %4) #8
  ret i32 0

97:                                               ; preds = %77, %97
  %98 = phi i64 [ %103, %97 ], [ %78, %77 ]
  %99 = phi i32 [ %102, %97 ], [ %79, %77 ]
  %100 = getelementptr inbounds [13 x i32], [13 x i32]* @__const.main.p, i64 0, i64 %98
  %101 = load i32, i32* %100, align 4, !tbaa !5
  %102 = add nsw i32 %101, %99
  %103 = add nuw nsw i64 %98, 1
  %104 = icmp eq i64 %103, %14
  br i1 %104, label %80, label %97, !llvm.loop !12
}

; Function Attrs: argmemonly mustprogress nofree nosync nounwind willreturn
declare void @llvm.lifetime.start.p0i8(i64 immarg, i8* nocapture) #5

declare nonnull align 8 dereferenceable(16) %"class.std::basic_istream"* @_ZNSirsERi(%"class.std::basic_istream"* nonnull align 8 dereferenceable(16), i32* nonnull align 4 dereferenceable(4)) local_unnamed_addr #0

; Function Attrs: argmemonly mustprogress nofree nosync nounwind willreturn
declare void @llvm.lifetime.end.p0i8(i64 immarg, i8* nocapture) #5

declare nonnull align 8 dereferenceable(8) %"class.std::basic_ostream"* @_ZNSolsEi(%"class.std::basic_ostream"* nonnull align 8 dereferenceable(8), i32) local_unnamed_addr #0

; Function Attrs: sspstrong uwtable
define internal void @_GLOBAL__sub_I_1103.cpp() #6 section ".text.startup" {
  tail call void @_ZNSt8ios_base4InitC1Ev(%"class.std::ios_base::Init"* nonnull align 1 dereferenceable(1) @_ZStL8__ioinit)
  %1 = tail call i32 @__cxa_atexit(void (i8*)* bitcast (void (%"class.std::ios_base::Init"*)* @_ZNSt8ios_base4InitD1Ev to void (i8*)*), i8* getelementptr inbounds (%"class.std::ios_base::Init", %"class.std::ios_base::Init"* @_ZStL8__ioinit, i64 0, i32 0), i8* nonnull @__dso_handle) #8
  ret void
}

; Function Attrs: nofree nosync nounwind readnone willreturn
declare i32 @llvm.vector.reduce.add.v4i32(<4 x i32>) #7


!llvm.module.flags = !{!0, !1, !2, !3}
!llvm.ident = !{!4}

!0 = !{i32 1, !"wchar_size", i32 4}
!1 = !{i32 7, !"PIC Level", i32 2}
!2 = !{i32 7, !"PIE Level", i32 2}
!3 = !{i32 7, !"uwtable", i32 1}
!4 = !{!"clang version 13.0.0"}
!5 = !{!6, !6, i64 0}
!6 = !{!"int", !7, i64 0}
!7 = !{!"omnipotent char", !8, i64 0}
!8 = !{!"Simple C++ TBAA"}
!9 = distinct !{!9, !10, !11}
!10 = !{!"llvm.loop.mustprogress"}
!11 = !{!"llvm.loop.isvectorized", i32 1}
!12 = distinct !{!12, !10, !13, !11}
!13 = !{!"llvm.loop.unroll.runtime.disable"}
